target datalayout = "e-m:e-p270:32:32-p271:32:32-p272:64:64-i64:64-i128:128-f80:128-n8:16:32:64-S128"
target triple = "x86_64-pc-linux-gnu"

%struct.pmix_object_t = type { %union.pthread_mutex_t, ptr, i32, %struct.pmix_tma }
%union.pthread_mutex_t = type { %struct.__pthread_mutex_s }
%struct.__pthread_mutex_s = type { i32, i32, i32, i32, i32, i16, i16, %struct.__pthread_internal_list }
%struct.__pthread_internal_list = type { ptr, ptr }
%struct.pmix_tma = type { ptr, ptr, ptr, ptr, ptr, ptr, ptr, ptr }
%struct.pmix_list_t = type { %struct.pmix_object_t, %struct.pmix_list_item_t, i64 }
%struct.pmix_list_item_t = type { %struct.pmix_object_t, ptr, ptr, i32 }
%struct.pmix_proc = type { [256 x i8], i32 }
%struct.timeval = type { i64, i64 }
%struct.pmix_class_t = type { ptr, ptr, ptr, ptr, i32, i32, ptr, ptr, i64 }
%struct.event = type { %struct.event_callback, %union.anon.0, i32, ptr, %union.anon.2, i16, i16, %struct.timeval }
%struct.event_callback = type { %struct.anon, i16, i8, i8, %union.anon, ptr }
%struct.anon = type { ptr, ptr }
%union.anon = type { ptr }
%union.anon.0 = type { %struct.anon.1 }
%struct.anon.1 = type { ptr, ptr }
%union.anon.2 = type { %struct.anon.3 }
%struct.anon.3 = type { %struct.anon.4, %struct.timeval }
%struct.anon.4 = type { ptr, ptr }
%struct.pmix_lock_t = type { i32, %struct.pmix_mutex_t, %union.pthread_cond_t, i8 }
%struct.pmix_mutex_t = type { %struct.pmix_object_t, %union.pthread_mutex_t }
%union.pthread_cond_t = type { %struct.__pthread_cond_s }
%struct.__pthread_cond_s = type { %union.__atomic_wide_counter, %union.__atomic_wide_counter, [2 x i32], [2 x i32], i32, i32, [2 x i32] }
%union.__atomic_wide_counter = type { i64 }
%struct.pmix_server_trkr_t = type { %struct.pmix_list_item_t, %struct.event, i8, i8, i8, ptr, i8, %struct.pmix_proc, i8, ptr, i64, %struct.pmix_list_t, %struct.pmix_lock_t, i8, %struct.pmix_list_t, i32, i32, ptr, i64, %struct.pmix_list_t, i32, i32, ptr, ptr, ptr, ptr }

@pmix_class_init_epoch = external global i32, align 4
@pmix_list_t_class = external global %struct.pmix_class_t, align 8
@pmix_mutex_t_class = external global %struct.pmix_class_t, align 8

; Function Attrs: inlinehint nounwind uwtable
define internal void @pmix_obj_run_constructors(ptr noundef %0) #4 {
  %2 = alloca ptr, align 8
  %3 = alloca ptr, align 8
  store ptr %0, ptr %2, align 8, !tbaa !89
  call void @llvm.lifetime.start.p0(i64 8, ptr %3) #14
  %4 = load ptr, ptr %2, align 8, !tbaa !89
  %5 = getelementptr inbounds nuw %struct.pmix_object_t, ptr %4, i32 0, i32 1
  %6 = load ptr, ptr %5, align 8, !tbaa !82
  %7 = getelementptr inbounds nuw %struct.pmix_class_t, ptr %6, i32 0, i32 6
  %8 = load ptr, ptr %7, align 8, !tbaa !142
  store ptr %8, ptr %3, align 8, !tbaa !8
  br label %9

9:                                                ; preds = %13, %1
  %10 = load ptr, ptr %3, align 8, !tbaa !8
  %11 = load ptr, ptr %10, align 8, !tbaa !8
  %12 = icmp ne ptr null, %11
  br i1 %12, label %13, label %19

13:                                               ; preds = %9
  %14 = load ptr, ptr %3, align 8, !tbaa !8
  %15 = load ptr, ptr %14, align 8, !tbaa !8
  %16 = load ptr, ptr %2, align 8, !tbaa !89
  call void %15(ptr noundef %16)
  %17 = load ptr, ptr %3, align 8, !tbaa !8
  %18 = getelementptr inbounds nuw ptr, ptr %17, i32 1
  store ptr %18, ptr %3, align 8, !tbaa !8
  br label %9, !llvm.loop !143

19:                                               ; preds = %9
  call void @llvm.lifetime.end.p0(i64 8, ptr %3) #14
  ret void
}

; Function Attrs: inlinehint nounwind uwtable
define internal void @pmix_obj_construct_tma(ptr noundef %0, ptr noundef %1) #4 {
  %3 = alloca ptr, align 8
  %4 = alloca ptr, align 8
  store ptr %0, ptr %3, align 8, !tbaa !89
  store ptr %1, ptr %4, align 8, !tbaa !132
  %5 = load ptr, ptr %4, align 8, !tbaa !132
  %6 = icmp eq ptr null, %5
  br i1 %6, label %7, label %32

7:                                                ; preds = %2
  %8 = load ptr, ptr %3, align 8, !tbaa !89
  %9 = getelementptr inbounds nuw %struct.pmix_object_t, ptr %8, i32 0, i32 3
  %10 = getelementptr inbounds nuw %struct.pmix_tma, ptr %9, i32 0, i32 0
  store ptr null, ptr %10, align 8, !tbaa !134
  %11 = load ptr, ptr %3, align 8, !tbaa !89
  %12 = getelementptr inbounds nuw %struct.pmix_object_t, ptr %11, i32 0, i32 3
  %13 = getelementptr inbounds nuw %struct.pmix_tma, ptr %12, i32 0, i32 1
  store ptr null, ptr %13, align 8, !tbaa !135
  %14 = load ptr, ptr %3, align 8, !tbaa !89
  %15 = getelementptr inbounds nuw %struct.pmix_object_t, ptr %14, i32 0, i32 3
  %16 = getelementptr inbounds nuw %struct.pmix_tma, ptr %15, i32 0, i32 2
  store ptr null, ptr %16, align 8, !tbaa !136
  %17 = load ptr, ptr %3, align 8, !tbaa !89
  %18 = getelementptr inbounds nuw %struct.pmix_object_t, ptr %17, i32 0, i32 3
  %19 = getelementptr inbounds nuw %struct.pmix_tma, ptr %18, i32 0, i32 3
  store ptr null, ptr %19, align 8, !tbaa !137
  %20 = load ptr, ptr %3, align 8, !tbaa !89
  %21 = getelementptr inbounds nuw %struct.pmix_object_t, ptr %20, i32 0, i32 3
  %22 = getelementptr inbounds nuw %struct.pmix_tma, ptr %21, i32 0, i32 4
  store ptr null, ptr %22, align 8, !tbaa !138
  %23 = load ptr, ptr %3, align 8, !tbaa !89
  %24 = getelementptr inbounds nuw %struct.pmix_object_t, ptr %23, i32 0, i32 3
  %25 = getelementptr inbounds nuw %struct.pmix_tma, ptr %24, i32 0, i32 5
  store ptr null, ptr %25, align 8, !tbaa !91
  %26 = load ptr, ptr %3, align 8, !tbaa !89
  %27 = getelementptr inbounds nuw %struct.pmix_object_t, ptr %26, i32 0, i32 3
  %28 = getelementptr inbounds nuw %struct.pmix_tma, ptr %27, i32 0, i32 6
  store ptr null, ptr %28, align 8, !tbaa !139
  %29 = load ptr, ptr %3, align 8, !tbaa !89
  %30 = getelementptr inbounds nuw %struct.pmix_object_t, ptr %29, i32 0, i32 3
  %31 = getelementptr inbounds nuw %struct.pmix_tma, ptr %30, i32 0, i32 7
  store ptr null, ptr %31, align 8, !tbaa !140
  br label %36

32:                                               ; preds = %2
  %33 = load ptr, ptr %3, align 8, !tbaa !89
  %34 = getelementptr inbounds nuw %struct.pmix_object_t, ptr %33, i32 0, i32 3
  %35 = load ptr, ptr %4, align 8, !tbaa !132
  call void @llvm.memcpy.p0.p0.i64(ptr align 8 %34, ptr align 8 %35, i64 64, i1 false), !tbaa.struct !141
  br label %36

36:                                               ; preds = %32, %7
  ret void
}

; Function Attrs: nounwind uwtable
define internal void @tcon(ptr noundef %0) #0 {
  %2 = alloca ptr, align 8
  store ptr %0, ptr %2, align 8, !tbaa !8
  %3 = load ptr, ptr %2, align 8, !tbaa !8
  %4 = getelementptr inbounds nuw %struct.pmix_server_trkr_t, ptr %3, i32 0, i32 2
  store i8 0, ptr %4, align 8, !tbaa !221
  %5 = load ptr, ptr %2, align 8, !tbaa !8
  %6 = getelementptr inbounds nuw %struct.pmix_server_trkr_t, ptr %5, i32 0, i32 3
  store i8 0, ptr %6, align 1, !tbaa !227
  %7 = load ptr, ptr %2, align 8, !tbaa !8
  %8 = getelementptr inbounds nuw %struct.pmix_server_trkr_t, ptr %7, i32 0, i32 4
  store i8 1, ptr %8, align 2, !tbaa !169
  %9 = load ptr, ptr %2, align 8, !tbaa !8
  %10 = getelementptr inbounds nuw %struct.pmix_server_trkr_t, ptr %9, i32 0, i32 5
  store ptr null, ptr %10, align 8, !tbaa !155
  %11 = load ptr, ptr %2, align 8, !tbaa !8
  %12 = getelementptr inbounds nuw %struct.pmix_server_trkr_t, ptr %11, i32 0, i32 7
  %13 = getelementptr inbounds nuw %struct.pmix_proc, ptr %12, i32 0, i32 0
  %14 = getelementptr inbounds [256 x i8], ptr %13, i64 0, i64 0
  call void @llvm.memset.p0.i64(ptr align 4 %14, i8 0, i64 256, i1 false)
  %15 = load ptr, ptr %2, align 8, !tbaa !8
  %16 = getelementptr inbounds nuw %struct.pmix_server_trkr_t, ptr %15, i32 0, i32 7
  %17 = getelementptr inbounds nuw %struct.pmix_proc, ptr %16, i32 0, i32 1
  store i32 -1, ptr %17, align 4, !tbaa !439
  %18 = load ptr, ptr %2, align 8, !tbaa !8
  %19 = getelementptr inbounds nuw %struct.pmix_server_trkr_t, ptr %18, i32 0, i32 9
  store ptr null, ptr %19, align 8, !tbaa !159
  %20 = load ptr, ptr %2, align 8, !tbaa !8
  %21 = getelementptr inbounds nuw %struct.pmix_server_trkr_t, ptr %20, i32 0, i32 10
  store i64 0, ptr %21, align 8, !tbaa !158
  br label %22

22:                                               ; preds = %1
  br label %23

23:                                               ; preds = %22
  br label %24

24:                                               ; preds = %23
  %25 = load i32, ptr @pmix_class_init_epoch, align 4, !tbaa !28
  %26 = load i32, ptr getelementptr inbounds nuw (%struct.pmix_class_t, ptr @pmix_list_t_class, i32 0, i32 4), align 8, !tbaa !80
  %27 = icmp ne i32 %25, %26
  br i1 %27, label %28, label %29

28:                                               ; preds = %24
  call void @pmix_class_initialize(ptr noundef @pmix_list_t_class)
  br label %29

29:                                               ; preds = %28, %24
  %30 = load ptr, ptr %2, align 8, !tbaa !8
  %31 = getelementptr inbounds nuw %struct.pmix_server_trkr_t, ptr %30, i32 0, i32 11
  %32 = getelementptr inbounds nuw %struct.pmix_object_t, ptr %31, i32 0, i32 1
  store ptr @pmix_list_t_class, ptr %32, align 8, !tbaa !82
  %33 = load ptr, ptr %2, align 8, !tbaa !8
  %34 = getelementptr inbounds nuw %struct.pmix_server_trkr_t, ptr %33, i32 0, i32 11
  %35 = getelementptr inbounds nuw %struct.pmix_object_t, ptr %34, i32 0, i32 2
  store i32 1, ptr %35, align 8, !tbaa !83
  %36 = load ptr, ptr %2, align 8, !tbaa !8
  %37 = getelementptr inbounds nuw %struct.pmix_server_trkr_t, ptr %36, i32 0, i32 11
  call void @pmix_obj_construct_tma(ptr noundef %37, ptr noundef null)
  %38 = load ptr, ptr %2, align 8, !tbaa !8
  %39 = getelementptr inbounds nuw %struct.pmix_server_trkr_t, ptr %38, i32 0, i32 11
  call void @pmix_obj_run_constructors(ptr noundef %39)
  br label %40

40:                                               ; preds = %29
  br label %41

41:                                               ; preds = %40
  br label %42

42:                                               ; preds = %41
  br label %43

43:                                               ; preds = %42
  br label %44

44:                                               ; preds = %43
  br label %45

45:                                               ; preds = %44
  br label %46

46:                                               ; preds = %45
  %47 = load i32, ptr @pmix_class_init_epoch, align 4, !tbaa !28
  %48 = load i32, ptr getelementptr inbounds nuw (%struct.pmix_class_t, ptr @pmix_mutex_t_class, i32 0, i32 4), align 8, !tbaa !80
  %49 = icmp ne i32 %47, %48
  br i1 %49, label %50, label %51

50:                                               ; preds = %46
  call void @pmix_class_initialize(ptr noundef @pmix_mutex_t_class)
  br label %51

51:                                               ; preds = %50, %46
  %52 = load ptr, ptr %2, align 8, !tbaa !8
  %53 = getelementptr inbounds nuw %struct.pmix_server_trkr_t, ptr %52, i32 0, i32 12
  %54 = getelementptr inbounds nuw %struct.pmix_lock_t, ptr %53, i32 0, i32 1
  %55 = getelementptr inbounds nuw %struct.pmix_object_t, ptr %54, i32 0, i32 1
  store ptr @pmix_mutex_t_class, ptr %55, align 8, !tbaa !82
  %56 = load ptr, ptr %2, align 8, !tbaa !8
  %57 = getelementptr inbounds nuw %struct.pmix_server_trkr_t, ptr %56, i32 0, i32 12
  %58 = getelementptr inbounds nuw %struct.pmix_lock_t, ptr %57, i32 0, i32 1
  %59 = getelementptr inbounds nuw %struct.pmix_object_t, ptr %58, i32 0, i32 2
  store i32 1, ptr %59, align 8, !tbaa !83
  %60 = load ptr, ptr %2, align 8, !tbaa !8
  %61 = getelementptr inbounds nuw %struct.pmix_server_trkr_t, ptr %60, i32 0, i32 12
  %62 = getelementptr inbounds nuw %struct.pmix_lock_t, ptr %61, i32 0, i32 1
  call void @pmix_obj_construct_tma(ptr noundef %62, ptr noundef null)
  %63 = load ptr, ptr %2, align 8, !tbaa !8
  %64 = getelementptr inbounds nuw %struct.pmix_server_trkr_t, ptr %63, i32 0, i32 12
  %65 = getelementptr inbounds nuw %struct.pmix_lock_t, ptr %64, i32 0, i32 1
  call void @pmix_obj_run_constructors(ptr noundef %65)
  br label %66

66:                                               ; preds = %51
  br label %67

67:                                               ; preds = %66
  br label %68

68:                                               ; preds = %67
  %69 = load ptr, ptr %2, align 8, !tbaa !8
  %70 = getelementptr inbounds nuw %struct.pmix_server_trkr_t, ptr %69, i32 0, i32 12
  %71 = getelementptr inbounds nuw %struct.pmix_lock_t, ptr %70, i32 0, i32 2
  %72 = call i32 @pthread_cond_init(ptr noundef %71, ptr noundef null) #14
  %73 = load ptr, ptr %2, align 8, !tbaa !8
  %74 = getelementptr inbounds nuw %struct.pmix_server_trkr_t, ptr %73, i32 0, i32 12
  %75 = getelementptr inbounds nuw %struct.pmix_lock_t, ptr %74, i32 0, i32 3
  store volatile i8 1, ptr %75, align 8, !tbaa !440
  br label %76

76:                                               ; preds = %68
  %77 = load ptr, ptr %2, align 8, !tbaa !8
  %78 = getelementptr inbounds nuw %struct.pmix_server_trkr_t, ptr %77, i32 0, i32 13
  store i8 0, ptr %78, align 8, !tbaa !182
  br label %79

79:                                               ; preds = %76
  br label %80

80:                                               ; preds = %79
  br label %81

81:                                               ; preds = %80
  %82 = load i32, ptr @pmix_class_init_epoch, align 4, !tbaa !28
  %83 = load i32, ptr getelementptr inbounds nuw (%struct.pmix_class_t, ptr @pmix_list_t_class, i32 0, i32 4), align 8, !tbaa !80
  %84 = icmp ne i32 %82, %83
  br i1 %84, label %85, label %86

85:                                               ; preds = %81
  call void @pmix_class_initialize(ptr noundef @pmix_list_t_class)
  br label %86

86:                                               ; preds = %85, %81
  %87 = load ptr, ptr %2, align 8, !tbaa !8
  %88 = getelementptr inbounds nuw %struct.pmix_server_trkr_t, ptr %87, i32 0, i32 14
  %89 = getelementptr inbounds nuw %struct.pmix_object_t, ptr %88, i32 0, i32 1
  store ptr @pmix_list_t_class, ptr %89, align 8, !tbaa !82
  %90 = load ptr, ptr %2, align 8, !tbaa !8
  %91 = getelementptr inbounds nuw %struct.pmix_server_trkr_t, ptr %90, i32 0, i32 14
  %92 = getelementptr inbounds nuw %struct.pmix_object_t, ptr %91, i32 0, i32 2
  store i32 1, ptr %92, align 8, !tbaa !83
  %93 = load ptr, ptr %2, align 8, !tbaa !8
  %94 = getelementptr inbounds nuw %struct.pmix_server_trkr_t, ptr %93, i32 0, i32 14
  call void @pmix_obj_construct_tma(ptr noundef %94, ptr noundef null)
  %95 = load ptr, ptr %2, align 8, !tbaa !8
  %96 = getelementptr inbounds nuw %struct.pmix_server_trkr_t, ptr %95, i32 0, i32 14
  call void @pmix_obj_run_constructors(ptr noundef %96)
  br label %97

97:                                               ; preds = %86
  br label %98

98:                                               ; preds = %97
  br label %99

99:                                               ; preds = %98
  %100 = load ptr, ptr %2, align 8, !tbaa !8
  %101 = getelementptr inbounds nuw %struct.pmix_server_trkr_t, ptr %100, i32 0, i32 15
  store i32 0, ptr %101, align 8, !tbaa !170
  %102 = load ptr, ptr %2, align 8, !tbaa !8
  %103 = getelementptr inbounds nuw %struct.pmix_server_trkr_t, ptr %102, i32 0, i32 16
  store i32 0, ptr %103, align 4, !tbaa !441
  %104 = load ptr, ptr %2, align 8, !tbaa !8
  %105 = getelementptr inbounds nuw %struct.pmix_server_trkr_t, ptr %104, i32 0, i32 17
  store ptr null, ptr %105, align 8, !tbaa !219
  %106 = load ptr, ptr %2, align 8, !tbaa !8
  %107 = getelementptr inbounds nuw %struct.pmix_server_trkr_t, ptr %106, i32 0, i32 18
  store i64 0, ptr %107, align 8, !tbaa !220
  br label %108

108:                                              ; preds = %99
  br label %109

109:                                              ; preds = %108
  br label %110

110:                                              ; preds = %109
  %111 = load i32, ptr @pmix_class_init_epoch, align 4, !tbaa !28
  %112 = load i32, ptr getelementptr inbounds nuw (%struct.pmix_class_t, ptr @pmix_list_t_class, i32 0, i32 4), align 8, !tbaa !80
  %113 = icmp ne i32 %111, %112
  br i1 %113, label %114, label %115

114:                                              ; preds = %110
  call void @pmix_class_initialize(ptr noundef @pmix_list_t_class)
  br label %115

115:                                              ; preds = %114, %110
  %116 = load ptr, ptr %2, align 8, !tbaa !8
  %117 = getelementptr inbounds nuw %struct.pmix_server_trkr_t, ptr %116, i32 0, i32 19
  %118 = getelementptr inbounds nuw %struct.pmix_object_t, ptr %117, i32 0, i32 1
  store ptr @pmix_list_t_class, ptr %118, align 8, !tbaa !82
  %119 = load ptr, ptr %2, align 8, !tbaa !8
  %120 = getelementptr inbounds nuw %struct.pmix_server_trkr_t, ptr %119, i32 0, i32 19
  %121 = getelementptr inbounds nuw %struct.pmix_object_t, ptr %120, i32 0, i32 2
  store i32 1, ptr %121, align 8, !tbaa !83
  %122 = load ptr, ptr %2, align 8, !tbaa !8
  %123 = getelementptr inbounds nuw %struct.pmix_server_trkr_t, ptr %122, i32 0, i32 19
  call void @pmix_obj_construct_tma(ptr noundef %123, ptr noundef null)
  %124 = load ptr, ptr %2, align 8, !tbaa !8
  %125 = getelementptr inbounds nuw %struct.pmix_server_trkr_t, ptr %124, i32 0, i32 19
  call void @pmix_obj_run_constructors(ptr noundef %125)
  br label %126

126:                                              ; preds = %115
  br label %127

127:                                              ; preds = %126
  br label %128

128:                                              ; preds = %127
  %129 = load ptr, ptr %2, align 8, !tbaa !8
  %130 = getelementptr inbounds nuw %struct.pmix_server_trkr_t, ptr %129, i32 0, i32 20
  store i32 2, ptr %130, align 8, !tbaa !442
  %131 = load ptr, ptr %2, align 8, !tbaa !8
  %132 = getelementptr inbounds nuw %struct.pmix_server_trkr_t, ptr %131, i32 0, i32 21
  store i32 -1, ptr %132, align 4, !tbaa !184
  %133 = load ptr, ptr %2, align 8, !tbaa !8
  %134 = getelementptr inbounds nuw %struct.pmix_server_trkr_t, ptr %133, i32 0, i32 22
  store ptr null, ptr %134, align 8, !tbaa !218
  %135 = load ptr, ptr %2, align 8, !tbaa !8
  %136 = getelementptr inbounds nuw %struct.pmix_server_trkr_t, ptr %135, i32 0, i32 23
  store ptr null, ptr %136, align 8, !tbaa !275
  %137 = load ptr, ptr %2, align 8, !tbaa !8
  %138 = getelementptr inbounds nuw %struct.pmix_server_trkr_t, ptr %137, i32 0, i32 24
  store ptr null, ptr %138, align 8, !tbaa !443
  %139 = load ptr, ptr %2, align 8, !tbaa !8
  %140 = getelementptr inbounds nuw %struct.pmix_server_trkr_t, ptr %139, i32 0, i32 8
  store i8 0, ptr %140, align 8, !tbaa !173
  %141 = load ptr, ptr %2, align 8, !tbaa !8
  %142 = getelementptr inbounds nuw %struct.pmix_server_trkr_t, ptr %141, i32 0, i32 25
  store ptr null, ptr %142, align 8, !tbaa !444
  ret void
}