; Function Attrs: nounwind uwtable
define internal void @tcon(ptr noundef initializes((272, 275), (280, 288), (292, 552), (560, 576), (616, 628), (632, 696)) %0) #0 {
  %2 = getelementptr inbounds nuw i8, ptr %0, i64 272
  store i8 0, ptr %2, align 8, !tbaa !188
  %3 = getelementptr inbounds nuw i8, ptr %0, i64 273
  store i8 0, ptr %3, align 1, !tbaa !195
  %4 = getelementptr inbounds nuw i8, ptr %0, i64 274
  store i8 1, ptr %4, align 2, !tbaa !143
  %5 = getelementptr inbounds nuw i8, ptr %0, i64 280
  store ptr null, ptr %5, align 8, !tbaa !137
  %6 = getelementptr inbounds nuw i8, ptr %0, i64 292
  tail call void @llvm.memset.p0.i64(ptr noundef nonnull align 4 dereferenceable(256) %6, i8 0, i64 256, i1 false)
  %7 = getelementptr inbounds nuw i8, ptr %0, i64 548
  store i32 -1, ptr %7, align 4, !tbaa !390
  %8 = getelementptr inbounds nuw i8, ptr %0, i64 560
  tail call void @llvm.memset.p0.i64(ptr noundef nonnull align 8 dereferenceable(16) %8, i8 0, i64 16, i1 false)
  %9 = load i32, ptr @pmix_class_init_epoch, align 4, !tbaa !23
  %10 = load i32, ptr getelementptr inbounds nuw (i8, ptr @pmix_list_t_class, i64 32), align 8, !tbaa !75
  %.not = icmp eq i32 %9, %10
  br i1 %.not, label %12, label %11

11:                                               ; preds = %1
  tail call void @pmix_class_initialize(ptr noundef nonnull @pmix_list_t_class) #19
  br label %12

12:                                               ; preds = %11, %1
  %13 = getelementptr inbounds nuw i8, ptr %0, i64 576
  %14 = getelementptr inbounds nuw i8, ptr %0, i64 616
  store ptr @pmix_list_t_class, ptr %14, align 8, !tbaa !77
  %15 = getelementptr inbounds nuw i8, ptr %0, i64 624
  store i32 1, ptr %15, align 8, !tbaa !78
  %16 = getelementptr inbounds nuw i8, ptr %0, i64 632
  tail call void @llvm.memset.p0.i64(ptr noundef nonnull align 8 dereferenceable(64) %16, i8 0, i64 64, i1 false)
  %17 = load ptr, ptr getelementptr inbounds nuw (i8, ptr @pmix_list_t_class, i64 40), align 8, !tbaa !79
  %18 = load ptr, ptr %17, align 8, !tbaa !80
  %.not6.i = icmp eq ptr %18, null
  br i1 %.not6.i, label %pmix_obj_run_constructors.exit, label %.lr.ph.i

.lr.ph.i:                                         ; preds = %12, %.lr.ph.i
  %19 = phi ptr [ %21, %.lr.ph.i ], [ %18, %12 ]
  %.07.i = phi ptr [ %20, %.lr.ph.i ], [ %17, %12 ]
  tail call void %19(ptr noundef nonnull %13) #19
  %20 = getelementptr inbounds nuw i8, ptr %.07.i, i64 8
  %21 = load ptr, ptr %20, align 8, !tbaa !80
  %.not.i = icmp eq ptr %21, null
  br i1 %.not.i, label %pmix_obj_run_constructors.exit, label %.lr.ph.i, !llvm.loop !81

pmix_obj_run_constructors.exit:                   ; preds = %.lr.ph.i, %12
  %22 = load i32, ptr @pmix_class_init_epoch, align 4, !tbaa !23
  %23 = load i32, ptr getelementptr inbounds nuw (i8, ptr @pmix_mutex_t_class, i64 32), align 8, !tbaa !75
  %.not38 = icmp eq i32 %22, %23
  br i1 %.not38, label %25, label %24

24:                                               ; preds = %pmix_obj_run_constructors.exit
  tail call void @pmix_class_initialize(ptr noundef nonnull @pmix_mutex_t_class) #19
  br label %25

25:                                               ; preds = %24, %pmix_obj_run_constructors.exit
  %26 = getelementptr inbounds nuw i8, ptr %0, i64 856
  %27 = getelementptr inbounds nuw i8, ptr %0, i64 896
  store ptr @pmix_mutex_t_class, ptr %27, align 8, !tbaa !77
  %28 = getelementptr inbounds nuw i8, ptr %0, i64 904
  store i32 1, ptr %28, align 8, !tbaa !78
  %29 = getelementptr inbounds nuw i8, ptr %0, i64 912
  tail call void @llvm.memset.p0.i64(ptr noundef nonnull align 8 dereferenceable(64) %29, i8 0, i64 64, i1 false)
  %30 = load ptr, ptr getelementptr inbounds nuw (i8, ptr @pmix_mutex_t_class, i64 40), align 8, !tbaa !79
  %31 = load ptr, ptr %30, align 8, !tbaa !80
  %.not6.i41 = icmp eq ptr %31, null
  br i1 %.not6.i41, label %pmix_obj_run_constructors.exit45, label %.lr.ph.i42

.lr.ph.i42:                                       ; preds = %25, %.lr.ph.i42
  %32 = phi ptr [ %34, %.lr.ph.i42 ], [ %31, %25 ]
  %.07.i43 = phi ptr [ %33, %.lr.ph.i42 ], [ %30, %25 ]
  tail call void %32(ptr noundef nonnull %26) #19
  %33 = getelementptr inbounds nuw i8, ptr %.07.i43, i64 8
  %34 = load ptr, ptr %33, align 8, !tbaa !80
  %.not.i44 = icmp eq ptr %34, null
  br i1 %.not.i44, label %pmix_obj_run_constructors.exit45, label %.lr.ph.i42, !llvm.loop !81

pmix_obj_run_constructors.exit45:                 ; preds = %.lr.ph.i42, %25
  %35 = getelementptr inbounds nuw i8, ptr %0, i64 1016
  %36 = tail call i32 @pthread_cond_init(ptr noundef nonnull %35, ptr noundef null) #19
  %37 = getelementptr inbounds nuw i8, ptr %0, i64 1064
  store volatile i8 1, ptr %37, align 8, !tbaa !391
  %38 = getelementptr inbounds nuw i8, ptr %0, i64 1072
  store i8 0, ptr %38, align 8, !tbaa !154
  %39 = load i32, ptr @pmix_class_init_epoch, align 4, !tbaa !23
  %40 = load i32, ptr getelementptr inbounds nuw (i8, ptr @pmix_list_t_class, i64 32), align 8, !tbaa !75
  %.not39 = icmp eq i32 %39, %40
  br i1 %.not39, label %42, label %41

41:                                               ; preds = %pmix_obj_run_constructors.exit45
  tail call void @pmix_class_initialize(ptr noundef nonnull @pmix_list_t_class) #19
  br label %42

42:                                               ; preds = %41, %pmix_obj_run_constructors.exit45
  %43 = getelementptr inbounds nuw i8, ptr %0, i64 1080
  %44 = getelementptr inbounds nuw i8, ptr %0, i64 1120
  store ptr @pmix_list_t_class, ptr %44, align 8, !tbaa !77
  %45 = getelementptr inbounds nuw i8, ptr %0, i64 1128
  store i32 1, ptr %45, align 8, !tbaa !78
  %46 = getelementptr inbounds nuw i8, ptr %0, i64 1136
  tail call void @llvm.memset.p0.i64(ptr noundef nonnull align 8 dereferenceable(64) %46, i8 0, i64 64, i1 false)
  %47 = load ptr, ptr getelementptr inbounds nuw (i8, ptr @pmix_list_t_class, i64 40), align 8, !tbaa !79
  %48 = load ptr, ptr %47, align 8, !tbaa !80
  %.not6.i46 = icmp eq ptr %48, null
  br i1 %.not6.i46, label %pmix_obj_run_constructors.exit50, label %.lr.ph.i47

.lr.ph.i47:                                       ; preds = %42, %.lr.ph.i47
  %49 = phi ptr [ %51, %.lr.ph.i47 ], [ %48, %42 ]
  %.07.i48 = phi ptr [ %50, %.lr.ph.i47 ], [ %47, %42 ]
  tail call void %49(ptr noundef nonnull %43) #19
  %50 = getelementptr inbounds nuw i8, ptr %.07.i48, i64 8
  %51 = load ptr, ptr %50, align 8, !tbaa !80
  %.not.i49 = icmp eq ptr %51, null
  br i1 %.not.i49, label %pmix_obj_run_constructors.exit50, label %.lr.ph.i47, !llvm.loop !81

pmix_obj_run_constructors.exit50:                 ; preds = %.lr.ph.i47, %42
  %52 = getelementptr inbounds nuw i8, ptr %0, i64 1352
  tail call void @llvm.memset.p0.i64(ptr noundef nonnull align 8 dereferenceable(24) %52, i8 0, i64 24, i1 false)
  %53 = load i32, ptr @pmix_class_init_epoch, align 4, !tbaa !23
  %54 = load i32, ptr getelementptr inbounds nuw (i8, ptr @pmix_list_t_class, i64 32), align 8, !tbaa !75
  %.not40 = icmp eq i32 %53, %54
  br i1 %.not40, label %56, label %55

55:                                               ; preds = %pmix_obj_run_constructors.exit50
  tail call void @pmix_class_initialize(ptr noundef nonnull @pmix_list_t_class) #19
  br label %56

56:                                               ; preds = %55, %pmix_obj_run_constructors.exit50
  %57 = getelementptr inbounds nuw i8, ptr %0, i64 1376
  %58 = getelementptr inbounds nuw i8, ptr %0, i64 1416
  store ptr @pmix_list_t_class, ptr %58, align 8, !tbaa !77
  %59 = getelementptr inbounds nuw i8, ptr %0, i64 1424
  store i32 1, ptr %59, align 8, !tbaa !78
  %60 = getelementptr inbounds nuw i8, ptr %0, i64 1432
  tail call void @llvm.memset.p0.i64(ptr noundef nonnull align 8 dereferenceable(64) %60, i8 0, i64 64, i1 false)
  %61 = load ptr, ptr getelementptr inbounds nuw (i8, ptr @pmix_list_t_class, i64 40), align 8, !tbaa !79
  %62 = load ptr, ptr %61, align 8, !tbaa !80
  %.not6.i51 = icmp eq ptr %62, null
  br i1 %.not6.i51, label %pmix_obj_run_constructors.exit55, label %.lr.ph.i52

.lr.ph.i52:                                       ; preds = %56, %.lr.ph.i52
  %63 = phi ptr [ %65, %.lr.ph.i52 ], [ %62, %56 ]
  %.07.i53 = phi ptr [ %64, %.lr.ph.i52 ], [ %61, %56 ]
  tail call void %63(ptr noundef nonnull %57) #19
  %64 = getelementptr inbounds nuw i8, ptr %.07.i53, i64 8
  %65 = load ptr, ptr %64, align 8, !tbaa !80
  %.not.i54 = icmp eq ptr %65, null
  br i1 %.not.i54, label %pmix_obj_run_constructors.exit55, label %.lr.ph.i52, !llvm.loop !81

pmix_obj_run_constructors.exit55:                 ; preds = %.lr.ph.i52, %56
  %66 = getelementptr inbounds nuw i8, ptr %0, i64 1648
  store i32 2, ptr %66, align 8, !tbaa !392
  %67 = getelementptr inbounds nuw i8, ptr %0, i64 1652
  store i32 -1, ptr %67, align 4, !tbaa !156
  %68 = getelementptr inbounds nuw i8, ptr %0, i64 1656
  %69 = getelementptr inbounds nuw i8, ptr %0, i64 552
  store i8 0, ptr %69, align 8, !tbaa !146
  tail call void @llvm.memset.p0.i64(ptr noundef nonnull align 8 dereferenceable(32) %68, i8 0, i64 32, i1 false)
  ret void
}